target datalayout = "e-m:e-p270:32:32-p271:32:32-p272:64:64-i64:64-i128:128-f80:128-n8:16:32:64-S128"
target triple = "x86_64-unknown-linux-gnu"

%"class.Assimp::BVHLoader" = type <{ %"class.Assimp::BaseImporter", %"class.std::__cxx11::basic_string", %"class.std::vector.3", %"class.__gnu_cxx::__normal_iterator", i32, [4 x i8], %"class.std::vector.5", float, i32, i8, [7 x i8] }>
%"class.Assimp::BaseImporter" = type { ptr, double, double, %"class.std::__cxx11::basic_string", %"class.std::__exception_ptr::exception_ptr", ptr }
%"class.std::__exception_ptr::exception_ptr" = type { ptr }
%"class.std::__cxx11::basic_string" = type { %"struct.std::__cxx11::basic_string<char>::_Alloc_hider", i64, %union.anon }
%"struct.std::__cxx11::basic_string<char>::_Alloc_hider" = type { ptr }
%union.anon = type { i64, [8 x i8] }
%"class.std::vector.3" = type { %"struct.std::_Vector_base.4" }
%"struct.std::_Vector_base.4" = type { %"struct.std::_Vector_base<char, std::allocator<char>>::_Vector_impl" }
%"struct.std::_Vector_base<char, std::allocator<char>>::_Vector_impl" = type { %"struct.std::_Vector_base<char, std::allocator<char>>::_Vector_impl_data" }
%"struct.std::_Vector_base<char, std::allocator<char>>::_Vector_impl_data" = type { ptr, ptr, ptr }
%"class.__gnu_cxx::__normal_iterator" = type { ptr }
%"class.std::vector.5" = type { %"struct.std::_Vector_base.6" }
%"struct.std::_Vector_base.6" = type { %"struct.std::_Vector_base<Assimp::BVHLoader::Node, std::allocator<Assimp::BVHLoader::Node>>::_Vector_impl" }
%"struct.std::_Vector_base<Assimp::BVHLoader::Node, std::allocator<Assimp::BVHLoader::Node>>::_Vector_impl" = type { %"struct.std::_Vector_base<Assimp::BVHLoader::Node, std::allocator<Assimp::BVHLoader::Node>>::_Vector_impl_data" }
%"struct.std::_Vector_base<Assimp::BVHLoader::Node, std::allocator<Assimp::BVHLoader::Node>>::_Vector_impl_data" = type { ptr, ptr, ptr }

@.str.1 = private unnamed_addr constant [26 x i8] c"IMPORT_NO_SKELETON_MESHES\00", align 1

; Function Attrs: mustprogress uwtable
define hidden void @_ZN6Assimp9BVHLoader15SetupPropertiesEPKNS_8ImporterE(ptr noundef nonnull align 8 dereferenceable(177) %this, ptr noundef %pImp) unnamed_addr #4 align 2 {
entry:
  %this.addr = alloca ptr, align 8
  %pImp.addr = alloca ptr, align 8
  store ptr %this, ptr %this.addr, align 8
  store ptr %pImp, ptr %pImp.addr, align 8
  %this1 = load ptr, ptr %this.addr, align 8
  %0 = load ptr, ptr %pImp.addr, align 8
  %call = call noundef i32 @_ZNK6Assimp8Importer18GetPropertyIntegerEPKci(ptr noundef nonnull align 8 dereferenceable(8) %0, ptr noundef @.str.1, i32 noundef 0)
  %cmp = icmp ne i32 %call, 0
  %noSkeletonMesh = getelementptr inbounds %"class.Assimp::BVHLoader", ptr %this1, i32 0, i32 9
  %frombool = zext i1 %cmp to i8
  store i8 %frombool, ptr %noSkeletonMesh, align 8
  ret void
}