; Function Attrs: mustprogress uwtable
define hidden void @_ZN6Assimp9BVHLoader15SetupPropertiesEPKNS_8ImporterE(ptr nocapture noundef nonnull writeonly align 8 dereferenceable(177) %this, ptr noundef nonnull %pImp) unnamed_addr #3 align 2 {
entry:
  %call = tail call noundef i32 @_ZNK6Assimp8Importer18GetPropertyIntegerEPKci(ptr noundef nonnull align 8 dereferenceable(8) %pImp, ptr noundef nonnull @.str.1, i32 noundef 0)
  %cmp = icmp ne i32 %call, 0
  %noSkeletonMesh = getelementptr inbounds i8, ptr %this, i64 176
  %frombool = zext i1 %cmp to i8
  store i8 %frombool, ptr %noSkeletonMesh, align 8
  ret void
}